target datalayout = "e-m:e-p270:32:32-p271:32:32-p272:64:64-i64:64-i128:128-f80:128-n8:16:32:64-S128"
target triple = "x86_64-pc-linux-gnu"

%struct.Supp_Man_t_ = type { i32, i32, i32, i32, ptr, ptr, ptr, ptr, ptr, ptr, [2 x ptr], [2 x ptr], [2 x ptr], ptr, ptr, ptr, ptr, ptr, ptr, ptr, ptr, ptr, ptr, ptr, ptr, ptr }
%struct.Hsh_VecMan_t_ = type { ptr, ptr, ptr, %struct.Vec_Int_t_, %struct.Vec_Int_t_, %struct.Vec_Int_t_ }
%struct.Vec_Int_t_ = type { i32, i32, ptr }
%struct.Hsh_VecObj_t_ = type { i32, i32, [0 x i32] }

; Function Attrs: inlinehint nounwind uwtable
define internal ptr @Vec_IntEntryP(ptr noundef %0, i32 noundef %1) #2 {
  %3 = alloca ptr, align 8
  %4 = alloca i32, align 4
  store ptr %0, ptr %3, align 8, !tbaa !41
  store i32 %1, ptr %4, align 4, !tbaa !8
  %5 = load ptr, ptr %3, align 8, !tbaa !41
  %6 = getelementptr inbounds nuw %struct.Vec_Int_t_, ptr %5, i32 0, i32 2
  %7 = load ptr, ptr %6, align 8, !tbaa !59
  %8 = load i32, ptr %4, align 4, !tbaa !8
  %9 = sext i32 %8 to i64
  %10 = getelementptr inbounds i32, ptr %7, i64 %9
  ret ptr %10
}

; Function Attrs: inlinehint nounwind uwtable
define internal ptr @Hsh_VecObj(ptr noundef %0, i32 noundef %1) #2 {
  %3 = alloca ptr, align 8
  %4 = alloca i32, align 4
  store ptr %0, ptr %3, align 8, !tbaa !40
  store i32 %1, ptr %4, align 4, !tbaa !8
  %5 = load i32, ptr %4, align 4, !tbaa !8
  %6 = icmp eq i32 %5, -1
  br i1 %6, label %7, label %8

7:                                                ; preds = %2
  br label %18

8:                                                ; preds = %2
  %9 = load ptr, ptr %3, align 8, !tbaa !40
  %10 = getelementptr inbounds nuw %struct.Hsh_VecMan_t_, ptr %9, i32 0, i32 1
  %11 = load ptr, ptr %10, align 8, !tbaa !55
  %12 = load ptr, ptr %3, align 8, !tbaa !40
  %13 = getelementptr inbounds nuw %struct.Hsh_VecMan_t_, ptr %12, i32 0, i32 2
  %14 = load ptr, ptr %13, align 8, !tbaa !42
  %15 = load i32, ptr %4, align 4, !tbaa !8
  %16 = call i32 @Vec_IntEntry(ptr noundef %14, i32 noundef %15)
  %17 = call ptr @Vec_IntEntryP(ptr noundef %11, i32 noundef %16)
  br label %18

18:                                               ; preds = %8, %7
  %19 = phi ptr [ null, %7 ], [ %17, %8 ]
  ret ptr %19
}

; Function Attrs: inlinehint nounwind uwtable
define internal i32 @Vec_IntSize(ptr noundef %0) #2 {
  %2 = alloca ptr, align 8
  store ptr %0, ptr %2, align 8, !tbaa !41
  %3 = load ptr, ptr %2, align 8, !tbaa !41
  %4 = getelementptr inbounds nuw %struct.Vec_Int_t_, ptr %3, i32 0, i32 1
  %5 = load i32, ptr %4, align 4, !tbaa !57
  ret i32 %5
}

; Function Attrs: inlinehint nounwind uwtable
define internal i32 @Vec_IntEntry(ptr noundef %0, i32 noundef %1) #2 {
  %3 = alloca ptr, align 8
  %4 = alloca i32, align 4
  store ptr %0, ptr %3, align 8, !tbaa !41
  store i32 %1, ptr %4, align 4, !tbaa !8
  %5 = load ptr, ptr %3, align 8, !tbaa !41
  %6 = getelementptr inbounds nuw %struct.Vec_Int_t_, ptr %5, i32 0, i32 2
  %7 = load ptr, ptr %6, align 8, !tbaa !59
  %8 = load i32, ptr %4, align 4, !tbaa !8
  %9 = sext i32 %8 to i64
  %10 = getelementptr inbounds i32, ptr %7, i64 %9
  %11 = load i32, ptr %10, align 4, !tbaa !8
  ret i32 %11
}

; Function Attrs: inlinehint nounwind uwtable
define internal ptr @Hsh_VecReadEntry(ptr noundef %0, i32 noundef %1) #2 {
  %3 = alloca ptr, align 8
  %4 = alloca i32, align 4
  %5 = alloca ptr, align 8
  store ptr %0, ptr %3, align 8, !tbaa !40
  store i32 %1, ptr %4, align 4, !tbaa !8
  call void @llvm.lifetime.start.p0(i64 8, ptr %5) #15
  %6 = load ptr, ptr %3, align 8, !tbaa !40
  %7 = load i32, ptr %4, align 4, !tbaa !8
  %8 = call ptr @Hsh_VecObj(ptr noundef %6, i32 noundef %7)
  store ptr %8, ptr %5, align 8, !tbaa !51
  %9 = load ptr, ptr %5, align 8, !tbaa !51
  %10 = getelementptr inbounds nuw %struct.Hsh_VecObj_t_, ptr %9, i32 0, i32 0
  %11 = load i32, ptr %10, align 4, !tbaa !53
  %12 = load ptr, ptr %3, align 8, !tbaa !40
  %13 = getelementptr inbounds nuw %struct.Hsh_VecMan_t_, ptr %12, i32 0, i32 3
  %14 = getelementptr inbounds nuw %struct.Vec_Int_t_, ptr %13, i32 0, i32 0
  store i32 %11, ptr %14, align 8, !tbaa !107
  %15 = load ptr, ptr %3, align 8, !tbaa !40
  %16 = getelementptr inbounds nuw %struct.Hsh_VecMan_t_, ptr %15, i32 0, i32 3
  %17 = getelementptr inbounds nuw %struct.Vec_Int_t_, ptr %16, i32 0, i32 1
  store i32 %11, ptr %17, align 4, !tbaa !108
  %18 = load ptr, ptr %5, align 8, !tbaa !51
  %19 = getelementptr inbounds i32, ptr %18, i64 2
  %20 = load ptr, ptr %3, align 8, !tbaa !40
  %21 = getelementptr inbounds nuw %struct.Hsh_VecMan_t_, ptr %20, i32 0, i32 3
  %22 = getelementptr inbounds nuw %struct.Vec_Int_t_, ptr %21, i32 0, i32 2
  store ptr %19, ptr %22, align 8, !tbaa !109
  %23 = load ptr, ptr %3, align 8, !tbaa !40
  %24 = getelementptr inbounds nuw %struct.Hsh_VecMan_t_, ptr %23, i32 0, i32 3
  call void @llvm.lifetime.end.p0(i64 8, ptr %5) #15
  ret ptr %24
}

; Function Attrs: nounwind uwtable
define i32 @Supp_SetFuncNum(ptr noundef %0, i32 noundef %1) #0 {
  %3 = alloca ptr, align 8
  %4 = alloca i32, align 4
  store ptr %0, ptr %3, align 8, !tbaa !24
  store i32 %1, ptr %4, align 4, !tbaa !8
  %5 = load ptr, ptr %3, align 8, !tbaa !24
  %6 = getelementptr inbounds nuw %struct.Supp_Man_t_, ptr %5, i32 0, i32 20
  %7 = load ptr, ptr %6, align 8, !tbaa !38
  %8 = load i32, ptr %4, align 4, !tbaa !8
  %9 = call i32 @Vec_IntEntry(ptr noundef %7, i32 noundef %8)
  ret i32 %9
}

; Function Attrs: nounwind uwtable
define i32 @Supp_SetSize(ptr noundef %0, i32 noundef %1) #0 {
  %3 = alloca ptr, align 8
  %4 = alloca i32, align 4
  store ptr %0, ptr %3, align 8, !tbaa !24
  store i32 %1, ptr %4, align 4, !tbaa !8
  %5 = load ptr, ptr %3, align 8, !tbaa !24
  %6 = getelementptr inbounds nuw %struct.Supp_Man_t_, ptr %5, i32 0, i32 17
  %7 = load ptr, ptr %6, align 8, !tbaa !26
  %8 = load i32, ptr %4, align 4, !tbaa !8
  %9 = call ptr @Hsh_VecReadEntry(ptr noundef %7, i32 noundef %8)
  %10 = call i32 @Vec_IntSize(ptr noundef %9)
  ret i32 %10
}

; Function Attrs: nounwind uwtable
define i32 @Supp_ManSubsetRemove(ptr noundef %0, i32 noundef %1, i32 noundef %2) #0 {
  %4 = alloca ptr, align 8
  %5 = alloca i32, align 4
  %6 = alloca i32, align 4
  %7 = alloca i32, align 4
  %8 = alloca i32, align 4
  %9 = alloca i32, align 4
  store ptr %0, ptr %4, align 8, !tbaa !24
  store i32 %1, ptr %5, align 4, !tbaa !8
  store i32 %2, ptr %6, align 4, !tbaa !8
  call void @llvm.lifetime.start.p0(i64 4, ptr %7) #15
  call void @llvm.lifetime.start.p0(i64 4, ptr %8) #15
  store i32 0, ptr %8, align 4, !tbaa !8
  call void @llvm.lifetime.start.p0(i64 4, ptr %9) #15
  %10 = load ptr, ptr %4, align 8, !tbaa !24
  %11 = load i32, ptr %5, align 4, !tbaa !8
  %12 = call i32 @Supp_SetSize(ptr noundef %10, i32 noundef %11)
  store i32 %12, ptr %9, align 4, !tbaa !8
  store i32 0, ptr %7, align 4, !tbaa !8
  br label %13

13:                                               ; preds = %38, %3
  %14 = load i32, ptr %7, align 4, !tbaa !8
  %15 = load i32, ptr %9, align 4, !tbaa !8
  %16 = icmp slt i32 %14, %15
  br i1 %16, label %17, label %41

17:                                               ; preds = %13
  %18 = load i32, ptr %7, align 4, !tbaa !8
  %19 = load i32, ptr %6, align 4, !tbaa !8
  %20 = icmp ne i32 %18, %19
  br i1 %20, label %21, label %37

21:                                               ; preds = %17
  %22 = load ptr, ptr %4, align 8, !tbaa !24
  %23 = load i32, ptr %8, align 4, !tbaa !8
  %24 = call i32 @Supp_SetFuncNum(ptr noundef %22, i32 noundef %23)
  %25 = icmp sgt i32 %24, 0
  br i1 %25, label %26, label %37

26:                                               ; preds = %21
  %27 = load ptr, ptr %4, align 8, !tbaa !24
  %28 = load i32, ptr %8, align 4, !tbaa !8
  %29 = load ptr, ptr %4, align 8, !tbaa !24
  %30 = getelementptr inbounds nuw %struct.Supp_Man_t_, ptr %29, i32 0, i32 17
  %31 = load ptr, ptr %30, align 8, !tbaa !26
  %32 = load i32, ptr %5, align 4, !tbaa !8
  %33 = call ptr @Hsh_VecReadEntry(ptr noundef %31, i32 noundef %32)
  %34 = load i32, ptr %7, align 4, !tbaa !8
  %35 = call i32 @Vec_IntEntry(ptr noundef %33, i32 noundef %34)
  %36 = call i32 @Supp_ManSubsetAdd(ptr noundef %27, i32 noundef %28, i32 noundef %35, i32 noundef 0)
  store i32 %36, ptr %8, align 4, !tbaa !8
  br label %37

37:                                               ; preds = %26, %21, %17
  br label %38

38:                                               ; preds = %37
  %39 = load i32, ptr %7, align 4, !tbaa !8
  %40 = add nsw i32 %39, 1
  store i32 %40, ptr %7, align 4, !tbaa !8
  br label %13, !llvm.loop !156

41:                                               ; preds = %13
  %42 = load i32, ptr %8, align 4, !tbaa !8
  call void @llvm.lifetime.end.p0(i64 4, ptr %9) #15
  call void @llvm.lifetime.end.p0(i64 4, ptr %8) #15
  call void @llvm.lifetime.end.p0(i64 4, ptr %7) #15
  ret i32 %42
}