; Function Attrs: nounwind uwtable
define i32 @Supp_ManSubsetRemove(ptr noundef readonly captures(none) %0, i32 noundef %1, i32 noundef %2) local_unnamed_addr #3 {
  %4 = getelementptr inbounds nuw i8, ptr %0, i64 144
  %5 = load ptr, ptr %4, align 8, !tbaa !19
  %6 = icmp ne i32 %1, -1
  tail call void @llvm.assume(i1 %6)
  %7 = getelementptr inbounds nuw i8, ptr %5, i64 8
  %8 = load ptr, ptr %7, align 8, !tbaa !47
  %9 = getelementptr inbounds nuw i8, ptr %5, i64 16
  %10 = load ptr, ptr %9, align 8, !tbaa !42
  %11 = getelementptr i8, ptr %10, i64 8
  %.val.i.i.i = load ptr, ptr %11, align 8, !tbaa !34
  %12 = sext i32 %1 to i64
  %13 = getelementptr inbounds i32, ptr %.val.i.i.i, i64 %12
  %14 = load i32, ptr %13, align 4, !tbaa !35
  %15 = getelementptr i8, ptr %8, i64 8
  %.val3.i.i.i = load ptr, ptr %15, align 8, !tbaa !34
  %16 = sext i32 %14 to i64
  %17 = getelementptr inbounds i32, ptr %.val3.i.i.i, i64 %16
  %18 = load i32, ptr %17, align 4, !tbaa !48
  %19 = getelementptr inbounds nuw i8, ptr %5, i64 24
  store i32 %18, ptr %19, align 8, !tbaa !50
  %20 = getelementptr inbounds nuw i8, ptr %5, i64 28
  store i32 %18, ptr %20, align 4, !tbaa !51
  %21 = getelementptr inbounds nuw i8, ptr %17, i64 8
  %22 = getelementptr inbounds nuw i8, ptr %5, i64 32
  store ptr %21, ptr %22, align 8, !tbaa !52
  %23 = icmp sgt i32 %18, 0
  br i1 %23, label %.lr.ph, label %._crit_edge

.lr.ph:                                           ; preds = %3
  %24 = getelementptr inbounds nuw i8, ptr %0, i64 168
  %25 = zext i32 %2 to i64
  %wide.trip.count = zext nneg i32 %18 to i64
  br label %26

26:                                               ; preds = %.lr.ph, %54
  %indvars.iv = phi i64 [ 0, %.lr.ph ], [ %indvars.iv.next, %54 ]
  %.01415 = phi i32 [ 0, %.lr.ph ], [ %.1, %54 ]
  %.not = icmp eq i64 %indvars.iv, %25
  br i1 %.not, label %54, label %27

27:                                               ; preds = %26
  %28 = load ptr, ptr %24, align 8, !tbaa !40
  %29 = getelementptr i8, ptr %28, i64 8
  %.val.i = load ptr, ptr %29, align 8, !tbaa !34
  %30 = sext i32 %.01415 to i64
  %31 = getelementptr inbounds i32, ptr %.val.i, i64 %30
  %32 = load i32, ptr %31, align 4, !tbaa !35
  %33 = icmp sgt i32 %32, 0
  br i1 %33, label %34, label %54

34:                                               ; preds = %27
  %35 = load ptr, ptr %4, align 8, !tbaa !19
  %36 = getelementptr inbounds nuw i8, ptr %35, i64 8
  %37 = load ptr, ptr %36, align 8, !tbaa !47
  %38 = getelementptr inbounds nuw i8, ptr %35, i64 16
  %39 = load ptr, ptr %38, align 8, !tbaa !42
  %40 = getelementptr i8, ptr %39, i64 8
  %.val.i.i = load ptr, ptr %40, align 8, !tbaa !34
  %41 = getelementptr inbounds i32, ptr %.val.i.i, i64 %12
  %42 = load i32, ptr %41, align 4, !tbaa !35
  %43 = getelementptr i8, ptr %37, i64 8
  %.val3.i.i = load ptr, ptr %43, align 8, !tbaa !34
  %44 = sext i32 %42 to i64
  %45 = getelementptr inbounds i32, ptr %.val3.i.i, i64 %44
  %46 = load i32, ptr %45, align 4, !tbaa !48
  %47 = getelementptr inbounds nuw i8, ptr %35, i64 24
  store i32 %46, ptr %47, align 8, !tbaa !50
  %48 = getelementptr inbounds nuw i8, ptr %35, i64 28
  store i32 %46, ptr %48, align 4, !tbaa !51
  %49 = getelementptr inbounds nuw i8, ptr %45, i64 8
  %50 = getelementptr inbounds nuw i8, ptr %35, i64 32
  store ptr %49, ptr %50, align 8, !tbaa !52
  %51 = getelementptr inbounds nuw i32, ptr %49, i64 %indvars.iv
  %52 = load i32, ptr %51, align 4, !tbaa !35
  %53 = tail call i32 @Supp_ManSubsetAdd(ptr noundef nonnull %0, i32 noundef %.01415, i32 noundef %52, i32 noundef 0)
  br label %54

54:                                               ; preds = %26, %27, %34
  %.1 = phi i32 [ %53, %34 ], [ %.01415, %27 ], [ %.01415, %26 ]
  %indvars.iv.next = add nuw nsw i64 %indvars.iv, 1
  %exitcond.not = icmp eq i64 %indvars.iv.next, %wide.trip.count
  br i1 %exitcond.not, label %._crit_edge, label %26, !llvm.loop !142

._crit_edge:                                      ; preds = %54, %3
  %.014.lcssa = phi i32 [ 0, %3 ], [ %.1, %54 ]
  ret i32 %.014.lcssa
}